target datalayout = "e-m:e-p270:32:32-p271:32:32-p272:64:64-i64:64-i128:128-f80:128-n8:16:32:64-S128"
target triple = "x86_64-pc-linux-gnu"

%class.Scheduler = type { [200 x %"struct.Scheduler::handType"], [200 x %"struct.Scheduler::groupType"], i32, i32, %"struct.std::atomic", [6 x [200 x %"struct.Scheduler::listType"]], [200 x %"struct.Scheduler::sortType"], i32, %"class.std::vector", %"class.std::vector", %"class.std::vector", i32, i32, %"class.std::vector", %"class.std::vector.0", %class.Timer }
%"struct.Scheduler::handType" = type { i32, i32, [4 x [4 x i32]], i32, i32, i32, i32, i32, i32, i32, i32, i32, i32 }
%"struct.Scheduler::groupType" = type { i32, i32, i32, i32, i32, i32 }
%"struct.std::atomic" = type { %"struct.std::__atomic_base" }
%"struct.std::__atomic_base" = type { i32 }
%"struct.Scheduler::listType" = type { i32, i32, i32 }
%"struct.Scheduler::sortType" = type { i32, i32 }
%"class.std::vector" = type { %"struct.std::_Vector_base" }
%"struct.std::_Vector_base" = type { %"struct.std::_Vector_base<int, std::allocator<int>>::_Vector_impl" }
%"struct.std::_Vector_base<int, std::allocator<int>>::_Vector_impl" = type { %"struct.std::_Vector_base<int, std::allocator<int>>::_Vector_impl_data" }
%"struct.std::_Vector_base<int, std::allocator<int>>::_Vector_impl_data" = type { ptr, ptr, ptr }
%"class.std::vector.0" = type { %"struct.std::_Vector_base.1" }
%"struct.std::_Vector_base.1" = type { %"struct.std::_Vector_base<Timer, std::allocator<Timer>>::_Vector_impl" }
%"struct.std::_Vector_base<Timer, std::allocator<Timer>>::_Vector_impl" = type { %"struct.std::_Vector_base<Timer, std::allocator<Timer>>::_Vector_impl_data" }
%"struct.std::_Vector_base<Timer, std::allocator<Timer>>::_Vector_impl_data" = type { ptr, ptr, ptr }
%class.Timer = type { %"class.std::__cxx11::basic_string", i32, i64, i64, %"class.std::chrono::time_point", i64 }
%"class.std::__cxx11::basic_string" = type { %"struct.std::__cxx11::basic_string<char>::_Alloc_hider", i64, %union.anon }
%"struct.std::__cxx11::basic_string<char>::_Alloc_hider" = type { ptr }
%union.anon = type { i64, [8 x i8] }
%"class.std::chrono::time_point" = type { %"class.std::chrono::duration" }
%"class.std::chrono::duration" = type { i64 }

; Function Attrs: mustprogress nounwind uwtable
define noundef zeroext i1 @_ZNK9Scheduler8SameHandEii(ptr noundef nonnull align 8 dereferenceable(43416) %0, i32 noundef %1, i32 noundef %2) #5 align 2 {
  %4 = alloca i1, align 1
  %5 = alloca ptr, align 8
  %6 = alloca i32, align 4
  %7 = alloca i32, align 4
  %8 = alloca i32, align 4
  %9 = alloca i32, align 4
  store ptr %0, ptr %5, align 8
  store i32 %1, ptr %6, align 4
  store i32 %2, ptr %7, align 4
  %10 = load ptr, ptr %5, align 8
  store i32 0, ptr %8, align 4
  br label %11

11:                                               ; preds = %50, %3
  %12 = load i32, ptr %8, align 4
  %13 = icmp slt i32 %12, 4
  br i1 %13, label %14, label %53

14:                                               ; preds = %11
  store i32 0, ptr %9, align 4
  br label %15

15:                                               ; preds = %46, %14
  %16 = load i32, ptr %9, align 4
  %17 = icmp slt i32 %16, 4
  br i1 %17, label %18, label %49

18:                                               ; preds = %15
  %19 = getelementptr inbounds nuw %class.Scheduler, ptr %10, i32 0, i32 0
  %20 = load i32, ptr %6, align 4
  %21 = sext i32 %20 to i64
  %22 = getelementptr inbounds [200 x %"struct.Scheduler::handType"], ptr %19, i64 0, i64 %21
  %23 = getelementptr inbounds nuw %"struct.Scheduler::handType", ptr %22, i32 0, i32 2
  %24 = load i32, ptr %8, align 4
  %25 = sext i32 %24 to i64
  %26 = getelementptr inbounds [4 x [4 x i32]], ptr %23, i64 0, i64 %25
  %27 = load i32, ptr %9, align 4
  %28 = sext i32 %27 to i64
  %29 = getelementptr inbounds [4 x i32], ptr %26, i64 0, i64 %28
  %30 = load i32, ptr %29, align 4
  %31 = getelementptr inbounds nuw %class.Scheduler, ptr %10, i32 0, i32 0
  %32 = load i32, ptr %7, align 4
  %33 = sext i32 %32 to i64
  %34 = getelementptr inbounds [200 x %"struct.Scheduler::handType"], ptr %31, i64 0, i64 %33
  %35 = getelementptr inbounds nuw %"struct.Scheduler::handType", ptr %34, i32 0, i32 2
  %36 = load i32, ptr %8, align 4
  %37 = sext i32 %36 to i64
  %38 = getelementptr inbounds [4 x [4 x i32]], ptr %35, i64 0, i64 %37
  %39 = load i32, ptr %9, align 4
  %40 = sext i32 %39 to i64
  %41 = getelementptr inbounds [4 x i32], ptr %38, i64 0, i64 %40
  %42 = load i32, ptr %41, align 4
  %43 = icmp ne i32 %30, %42
  br i1 %43, label %44, label %45

44:                                               ; preds = %18
  store i1 false, ptr %4, align 1
  br label %54

45:                                               ; preds = %18
  br label %46

46:                                               ; preds = %45
  %47 = load i32, ptr %9, align 4
  %48 = add nsw i32 %47, 1
  store i32 %48, ptr %9, align 4
  br label %15, !llvm.loop !36

49:                                               ; preds = %15
  br label %50

50:                                               ; preds = %49
  %51 = load i32, ptr %8, align 4
  %52 = add nsw i32 %51, 1
  store i32 %52, ptr %8, align 4
  br label %11, !llvm.loop !37

53:                                               ; preds = %11
  store i1 true, ptr %4, align 1
  br label %54

54:                                               ; preds = %53, %44
  %55 = load i1, ptr %4, align 1
  ret i1 %55
}