; Function Attrs: mustprogress nofree norecurse nosync nounwind willreturn memory(argmem: read) uwtable
define noundef zeroext i1 @_ZNK9Scheduler8SameHandEii(ptr nocapture noundef nonnull readonly align 8 dereferenceable(43416) %0, i32 noundef %1, i32 noundef %2) local_unnamed_addr #11 align 2 {
  %4 = sext i32 %1 to i64
  %5 = sext i32 %2 to i64
  br label %.preheader

.preheader:                                       ; preds = %3, %12
  %indvars.iv21 = phi i64 [ 0, %3 ], [ %indvars.iv.next22, %12 ]
  br label %7

6:                                                ; preds = %7
  %indvars.iv.next = add nuw nsw i64 %indvars.iv, 1
  %exitcond.not = icmp eq i64 %indvars.iv.next, 4
  br i1 %exitcond.not, label %12, label %7, !llvm.loop !23

7:                                                ; preds = %.preheader, %6
  %indvars.iv = phi i64 [ 0, %.preheader ], [ %indvars.iv.next, %6 ]
  %8 = getelementptr inbounds [200 x %"struct.Scheduler::handType"], ptr %0, i64 0, i64 %4, i32 2, i64 %indvars.iv21, i64 %indvars.iv
  %9 = load i32, ptr %8, align 4
  %10 = getelementptr inbounds [200 x %"struct.Scheduler::handType"], ptr %0, i64 0, i64 %5, i32 2, i64 %indvars.iv21, i64 %indvars.iv
  %11 = load i32, ptr %10, align 4
  %.not = icmp eq i32 %9, %11
  br i1 %.not, label %6, label %.loopexit

12:                                               ; preds = %6
  %indvars.iv.next22 = add nuw nsw i64 %indvars.iv21, 1
  %exitcond24 = icmp eq i64 %indvars.iv.next22, 4
  br i1 %exitcond24, label %.loopexit, label %.preheader, !llvm.loop !22

.loopexit:                                        ; preds = %12, %7
  ret i1 %.not
}